target datalayout = "e-m:e-p270:32:32-p271:32:32-p272:64:64-i64:64-i128:128-f80:128-n8:16:32:64-S128"
target triple = "x86_64-pc-linux-gnu"

%struct._packet_info = type { ptr, ptr, i32, i32, %struct.nstime_t, %struct.nstime_t, %struct.nstime_t, i8, ptr, ptr, ptr, ptr, %struct._address, %struct._address, %struct._address, %struct._address, %struct._address, %struct._address, i32, ptr, i8, [3 x i8], %struct.anon, i32, i32, i32, i32, ptr, i8, ptr, ptr, i16, i16, i32, i32, i16, i32, i32, ptr, ptr, ptr, i8, i8, i16, i16, i16, i32, i16, i16, ptr, ptr, ptr, ptr, ptr, i32, i32 }
%struct.nstime_t = type { i64, i32 }
%struct._address = type { i32, i32, ptr, ptr }
%struct.anon = type { i8, [3 x i8] }
%struct._uuid_t = type { i16, i8, [16 x i8] }
%struct._wmem_tree_key_t = type { i32, ptr }
%struct._btl2cap_data_t = type { i32, i32, ptr, i16, ptr, i16, ptr, i16, i32, i32, i8, i32, i32 }
%struct._service_info_t = type { i32, i32, i32, i32, i32, i32, i32, i32, %struct._uuid_t, i32, i32, ptr, ptr }

; Function Attrs: null_pointer_is_valid sspstrong uwtable
define internal zeroext i16 @get_service_uuid(ptr noundef %0, ptr noundef %1, i16 noundef zeroext %2, i1 noundef zeroext %3) #1 {
  %5 = alloca i16, align 2
  %6 = alloca ptr, align 8
  %7 = alloca ptr, align 8
  %8 = alloca i16, align 2
  %9 = alloca i8, align 1
  %10 = alloca [10 x %struct._wmem_tree_key_t], align 16
  %11 = alloca i32, align 4
  %12 = alloca i32, align 4
  %13 = alloca i32, align 4
  %14 = alloca i32, align 4
  %15 = alloca i32, align 4
  %16 = alloca i32, align 4
  %17 = alloca i32, align 4
  %18 = alloca i32, align 4
  %19 = alloca i32, align 4
  %20 = alloca i32, align 4
  %21 = alloca i32, align 4
  %22 = alloca i32, align 4
  %23 = alloca i32, align 4
  %24 = alloca ptr, align 8
  %25 = alloca i32, align 4
  store ptr %0, ptr %6, align 8
  store ptr %1, ptr %7, align 8
  store i16 %2, ptr %8, align 2
  %26 = zext i1 %3 to i8
  store i8 %26, ptr %9, align 1
  call void @llvm.lifetime.start.p0(i64 160, ptr %10) #9
  call void @llvm.lifetime.start.p0(i64 4, ptr %11) #9
  call void @llvm.lifetime.start.p0(i64 4, ptr %12) #9
  call void @llvm.lifetime.start.p0(i64 4, ptr %13) #9
  call void @llvm.lifetime.start.p0(i64 4, ptr %14) #9
  call void @llvm.lifetime.start.p0(i64 4, ptr %15) #9
  call void @llvm.lifetime.start.p0(i64 4, ptr %16) #9
  call void @llvm.lifetime.start.p0(i64 4, ptr %17) #9
  call void @llvm.lifetime.start.p0(i64 4, ptr %18) #9
  call void @llvm.lifetime.start.p0(i64 4, ptr %19) #9
  call void @llvm.lifetime.start.p0(i64 4, ptr %20) #9
  call void @llvm.lifetime.start.p0(i64 4, ptr %21) #9
  call void @llvm.lifetime.start.p0(i64 4, ptr %22) #9
  call void @llvm.lifetime.start.p0(i64 4, ptr %23) #9
  call void @llvm.lifetime.start.p0(i64 8, ptr %24) #9
  %27 = load ptr, ptr %7, align 8
  %28 = getelementptr inbounds nuw %struct._btl2cap_data_t, ptr %27, i32 0, i32 0
  %29 = load i32, ptr %28, align 8
  store i32 %29, ptr %20, align 4
  %30 = load ptr, ptr %7, align 8
  %31 = getelementptr inbounds nuw %struct._btl2cap_data_t, ptr %30, i32 0, i32 1
  %32 = load i32, ptr %31, align 4
  store i32 %32, ptr %21, align 4
  %33 = load i32, ptr %20, align 4
  store i32 %33, ptr %11, align 4
  %34 = load i32, ptr %21, align 4
  store i32 %34, ptr %12, align 4
  store i32 1, ptr %13, align 4
  %35 = load i8, ptr %9, align 1, !range !6, !noundef !7
  %36 = trunc i8 %35 to i1
  %37 = select i1 %36, i32 0, i32 1
  store i32 %37, ptr %14, align 4
  %38 = load i32, ptr %14, align 4
  %39 = icmp eq i32 %38, 1
  br i1 %39, label %40, label %47

40:                                               ; preds = %4
  %41 = load ptr, ptr %7, align 8
  %42 = getelementptr inbounds nuw %struct._btl2cap_data_t, ptr %41, i32 0, i32 11
  %43 = load i32, ptr %42, align 8
  store i32 %43, ptr %15, align 4
  %44 = load ptr, ptr %7, align 8
  %45 = getelementptr inbounds nuw %struct._btl2cap_data_t, ptr %44, i32 0, i32 12
  %46 = load i32, ptr %45, align 4
  store i32 %46, ptr %16, align 4
  br label %48

47:                                               ; preds = %4
  store i32 0, ptr %15, align 4
  store i32 0, ptr %16, align 4
  br label %48

48:                                               ; preds = %47, %40
  %49 = load i32, ptr %15, align 4
  store i32 %49, ptr %22, align 4
  %50 = load i32, ptr %16, align 4
  store i32 %50, ptr %23, align 4
  store i32 256, ptr %17, align 4
  %51 = load i16, ptr %8, align 2
  %52 = zext i16 %51 to i32
  store i32 %52, ptr %18, align 4
  %53 = load ptr, ptr %6, align 8
  %54 = getelementptr inbounds nuw %struct._packet_info, ptr %53, i32 0, i32 3
  %55 = load i32, ptr %54, align 4
  store i32 %55, ptr %19, align 4
  %56 = getelementptr [10 x %struct._wmem_tree_key_t], ptr %10, i64 0, i64 0
  %57 = getelementptr inbounds nuw %struct._wmem_tree_key_t, ptr %56, i32 0, i32 0
  store i32 1, ptr %57, align 16
  %58 = getelementptr [10 x %struct._wmem_tree_key_t], ptr %10, i64 0, i64 0
  %59 = getelementptr inbounds nuw %struct._wmem_tree_key_t, ptr %58, i32 0, i32 1
  store ptr %11, ptr %59, align 8
  %60 = getelementptr [10 x %struct._wmem_tree_key_t], ptr %10, i64 0, i64 1
  %61 = getelementptr inbounds nuw %struct._wmem_tree_key_t, ptr %60, i32 0, i32 0
  store i32 1, ptr %61, align 16
  %62 = getelementptr [10 x %struct._wmem_tree_key_t], ptr %10, i64 0, i64 1
  %63 = getelementptr inbounds nuw %struct._wmem_tree_key_t, ptr %62, i32 0, i32 1
  store ptr %12, ptr %63, align 8
  %64 = getelementptr [10 x %struct._wmem_tree_key_t], ptr %10, i64 0, i64 2
  %65 = getelementptr inbounds nuw %struct._wmem_tree_key_t, ptr %64, i32 0, i32 0
  store i32 1, ptr %65, align 16
  %66 = getelementptr [10 x %struct._wmem_tree_key_t], ptr %10, i64 0, i64 2
  %67 = getelementptr inbounds nuw %struct._wmem_tree_key_t, ptr %66, i32 0, i32 1
  store ptr %13, ptr %67, align 8
  %68 = getelementptr [10 x %struct._wmem_tree_key_t], ptr %10, i64 0, i64 3
  %69 = getelementptr inbounds nuw %struct._wmem_tree_key_t, ptr %68, i32 0, i32 0
  store i32 1, ptr %69, align 16
  %70 = getelementptr [10 x %struct._wmem_tree_key_t], ptr %10, i64 0, i64 3
  %71 = getelementptr inbounds nuw %struct._wmem_tree_key_t, ptr %70, i32 0, i32 1
  store ptr %14, ptr %71, align 8
  %72 = getelementptr [10 x %struct._wmem_tree_key_t], ptr %10, i64 0, i64 4
  %73 = getelementptr inbounds nuw %struct._wmem_tree_key_t, ptr %72, i32 0, i32 0
  store i32 1, ptr %73, align 16
  %74 = getelementptr [10 x %struct._wmem_tree_key_t], ptr %10, i64 0, i64 4
  %75 = getelementptr inbounds nuw %struct._wmem_tree_key_t, ptr %74, i32 0, i32 1
  store ptr %15, ptr %75, align 8
  %76 = getelementptr [10 x %struct._wmem_tree_key_t], ptr %10, i64 0, i64 5
  %77 = getelementptr inbounds nuw %struct._wmem_tree_key_t, ptr %76, i32 0, i32 0
  store i32 1, ptr %77, align 16
  %78 = getelementptr [10 x %struct._wmem_tree_key_t], ptr %10, i64 0, i64 5
  %79 = getelementptr inbounds nuw %struct._wmem_tree_key_t, ptr %78, i32 0, i32 1
  store ptr %16, ptr %79, align 8
  %80 = getelementptr [10 x %struct._wmem_tree_key_t], ptr %10, i64 0, i64 6
  %81 = getelementptr inbounds nuw %struct._wmem_tree_key_t, ptr %80, i32 0, i32 0
  store i32 1, ptr %81, align 16
  %82 = getelementptr [10 x %struct._wmem_tree_key_t], ptr %10, i64 0, i64 6
  %83 = getelementptr inbounds nuw %struct._wmem_tree_key_t, ptr %82, i32 0, i32 1
  store ptr %17, ptr %83, align 8
  %84 = getelementptr [10 x %struct._wmem_tree_key_t], ptr %10, i64 0, i64 7
  %85 = getelementptr inbounds nuw %struct._wmem_tree_key_t, ptr %84, i32 0, i32 0
  store i32 1, ptr %85, align 16
  %86 = getelementptr [10 x %struct._wmem_tree_key_t], ptr %10, i64 0, i64 7
  %87 = getelementptr inbounds nuw %struct._wmem_tree_key_t, ptr %86, i32 0, i32 1
  store ptr %18, ptr %87, align 8
  %88 = getelementptr [10 x %struct._wmem_tree_key_t], ptr %10, i64 0, i64 8
  %89 = getelementptr inbounds nuw %struct._wmem_tree_key_t, ptr %88, i32 0, i32 0
  store i32 1, ptr %89, align 16
  %90 = getelementptr [10 x %struct._wmem_tree_key_t], ptr %10, i64 0, i64 8
  %91 = getelementptr inbounds nuw %struct._wmem_tree_key_t, ptr %90, i32 0, i32 1
  store ptr %19, ptr %91, align 8
  %92 = getelementptr [10 x %struct._wmem_tree_key_t], ptr %10, i64 0, i64 9
  %93 = getelementptr inbounds nuw %struct._wmem_tree_key_t, ptr %92, i32 0, i32 0
  store i32 0, ptr %93, align 16
  %94 = getelementptr [10 x %struct._wmem_tree_key_t], ptr %10, i64 0, i64 9
  %95 = getelementptr inbounds nuw %struct._wmem_tree_key_t, ptr %94, i32 0, i32 1
  store ptr null, ptr %95, align 8
  %96 = getelementptr inbounds [10 x %struct._wmem_tree_key_t], ptr %10, i64 0, i64 0
  %97 = call ptr @btsdp_get_service_info(ptr noundef %96)
  store ptr %97, ptr %24, align 8
  %98 = load ptr, ptr %24, align 8
  %99 = icmp ne ptr %98, null
  br i1 %99, label %100, label %166

100:                                              ; preds = %48
  %101 = load ptr, ptr %24, align 8
  %102 = getelementptr inbounds nuw %struct._service_info_t, ptr %101, i32 0, i32 0
  %103 = load i32, ptr %102, align 8
  %104 = load i32, ptr %20, align 4
  %105 = icmp eq i32 %103, %104
  br i1 %105, label %106, label %166

106:                                              ; preds = %100
  %107 = load ptr, ptr %24, align 8
  %108 = getelementptr inbounds nuw %struct._service_info_t, ptr %107, i32 0, i32 1
  %109 = load i32, ptr %108, align 4
  %110 = load i32, ptr %21, align 4
  %111 = icmp eq i32 %109, %110
  br i1 %111, label %112, label %166

112:                                              ; preds = %106
  %113 = load ptr, ptr %24, align 8
  %114 = getelementptr inbounds nuw %struct._service_info_t, ptr %113, i32 0, i32 2
  %115 = load i32, ptr %114, align 8
  %116 = icmp eq i32 %115, 1
  br i1 %116, label %117, label %166

117:                                              ; preds = %112
  %118 = load ptr, ptr %24, align 8
  %119 = getelementptr inbounds nuw %struct._service_info_t, ptr %118, i32 0, i32 3
  %120 = load i32, ptr %119, align 4
  %121 = icmp eq i32 %120, 1
  br i1 %121, label %122, label %134

122:                                              ; preds = %117
  %123 = load ptr, ptr %24, align 8
  %124 = getelementptr inbounds nuw %struct._service_info_t, ptr %123, i32 0, i32 4
  %125 = load i32, ptr %124, align 8
  %126 = load i32, ptr %22, align 4
  %127 = icmp eq i32 %125, %126
  br i1 %127, label %128, label %134

128:                                              ; preds = %122
  %129 = load ptr, ptr %24, align 8
  %130 = getelementptr inbounds nuw %struct._service_info_t, ptr %129, i32 0, i32 5
  %131 = load i32, ptr %130, align 4
  %132 = load i32, ptr %23, align 4
  %133 = icmp eq i32 %131, %132
  br i1 %133, label %149, label %134

134:                                              ; preds = %128, %122, %117
  %135 = load ptr, ptr %24, align 8
  %136 = getelementptr inbounds nuw %struct._service_info_t, ptr %135, i32 0, i32 3
  %137 = load i32, ptr %136, align 4
  %138 = icmp ne i32 %137, 1
  br i1 %138, label %139, label %166

139:                                              ; preds = %134
  %140 = load ptr, ptr %24, align 8
  %141 = getelementptr inbounds nuw %struct._service_info_t, ptr %140, i32 0, i32 4
  %142 = load i32, ptr %141, align 8
  %143 = icmp eq i32 %142, 0
  br i1 %143, label %144, label %166

144:                                              ; preds = %139
  %145 = load ptr, ptr %24, align 8
  %146 = getelementptr inbounds nuw %struct._service_info_t, ptr %145, i32 0, i32 5
  %147 = load i32, ptr %146, align 4
  %148 = icmp eq i32 %147, 0
  br i1 %148, label %149, label %166

149:                                              ; preds = %144, %128
  %150 = load ptr, ptr %24, align 8
  %151 = getelementptr inbounds nuw %struct._service_info_t, ptr %150, i32 0, i32 6
  %152 = load i32, ptr %151, align 8
  %153 = icmp eq i32 %152, 256
  br i1 %153, label %154, label %166

154:                                              ; preds = %149
  %155 = load ptr, ptr %24, align 8
  %156 = getelementptr inbounds nuw %struct._service_info_t, ptr %155, i32 0, i32 7
  %157 = load i32, ptr %156, align 4
  %158 = load i16, ptr %8, align 2
  %159 = zext i16 %158 to i32
  %160 = icmp eq i32 %157, %159
  br i1 %160, label %161, label %166

161:                                              ; preds = %154
  %162 = load ptr, ptr %24, align 8
  %163 = getelementptr inbounds nuw %struct._service_info_t, ptr %162, i32 0, i32 8
  %164 = getelementptr inbounds nuw %struct._uuid_t, ptr %163, i32 0, i32 0
  %165 = load i16, ptr %164, align 8
  store i16 %165, ptr %5, align 2
  store i32 1, ptr %25, align 4
  br label %167

166:                                              ; preds = %154, %149, %144, %139, %134, %112, %106, %100, %48
  store i16 0, ptr %5, align 2
  store i32 1, ptr %25, align 4
  br label %167

167:                                              ; preds = %166, %161
  call void @llvm.lifetime.end.p0(i64 8, ptr %24) #9
  call void @llvm.lifetime.end.p0(i64 4, ptr %23) #9
  call void @llvm.lifetime.end.p0(i64 4, ptr %22) #9
  call void @llvm.lifetime.end.p0(i64 4, ptr %21) #9
  call void @llvm.lifetime.end.p0(i64 4, ptr %20) #9
  call void @llvm.lifetime.end.p0(i64 4, ptr %19) #9
  call void @llvm.lifetime.end.p0(i64 4, ptr %18) #9
  call void @llvm.lifetime.end.p0(i64 4, ptr %17) #9
  call void @llvm.lifetime.end.p0(i64 4, ptr %16) #9
  call void @llvm.lifetime.end.p0(i64 4, ptr %15) #9
  call void @llvm.lifetime.end.p0(i64 4, ptr %14) #9
  call void @llvm.lifetime.end.p0(i64 4, ptr %13) #9
  call void @llvm.lifetime.end.p0(i64 4, ptr %12) #9
  call void @llvm.lifetime.end.p0(i64 4, ptr %11) #9
  call void @llvm.lifetime.end.p0(i64 160, ptr %10) #9
  %168 = load i16, ptr %5, align 2
  ret i16 %168
}