; Function Attrs: null_pointer_is_valid sspstrong uwtable
define internal fastcc zeroext i16 @get_service_uuid(ptr noundef readonly captures(none) %0, ptr noundef readonly captures(none) %1, i16 noundef zeroext %2, i1 noundef zeroext %3) unnamed_addr #1 {
  %5 = alloca [10 x %struct._wmem_tree_key_t], align 16
  %6 = alloca i32, align 4
  %7 = alloca i32, align 4
  %8 = alloca i32, align 4
  %9 = alloca i32, align 4
  %10 = alloca i32, align 4
  %11 = alloca i32, align 4
  %12 = alloca i32, align 4
  %13 = alloca i32, align 4
  %14 = alloca i32, align 4
  call void @llvm.lifetime.start.p0(i64 160, ptr nonnull %5) #9
  call void @llvm.lifetime.start.p0(i64 4, ptr nonnull %6) #9
  call void @llvm.lifetime.start.p0(i64 4, ptr nonnull %7) #9
  call void @llvm.lifetime.start.p0(i64 4, ptr nonnull %8) #9
  call void @llvm.lifetime.start.p0(i64 4, ptr nonnull %9) #9
  call void @llvm.lifetime.start.p0(i64 4, ptr nonnull %10) #9
  call void @llvm.lifetime.start.p0(i64 4, ptr nonnull %11) #9
  call void @llvm.lifetime.start.p0(i64 4, ptr nonnull %12) #9
  call void @llvm.lifetime.start.p0(i64 4, ptr nonnull %13) #9
  call void @llvm.lifetime.start.p0(i64 4, ptr nonnull %14) #9
  %15 = load i32, ptr %1, align 8
  %16 = getelementptr inbounds nuw i8, ptr %1, i64 4
  %17 = load i32, ptr %16, align 4
  store i32 %15, ptr %6, align 4
  store i32 %17, ptr %7, align 4
  store i32 1, ptr %8, align 4
  %not. = xor i1 %3, true
  %18 = zext i1 %not. to i32
  store i32 %18, ptr %9, align 4
  br i1 %3, label %24, label %19

19:                                               ; preds = %4
  %20 = getelementptr inbounds nuw i8, ptr %1, i64 64
  %21 = load i32, ptr %20, align 8
  %22 = getelementptr inbounds nuw i8, ptr %1, i64 68
  %23 = load i32, ptr %22, align 4
  br label %24

24:                                               ; preds = %4, %19
  %.sink = phi i32 [ %21, %19 ], [ 0, %4 ]
  %storemerge = phi i32 [ %23, %19 ], [ 0, %4 ]
  store i32 %.sink, ptr %10, align 4
  store i32 %storemerge, ptr %11, align 4
  store i32 256, ptr %12, align 4
  %25 = zext i16 %2 to i32
  store i32 %25, ptr %13, align 4
  %26 = getelementptr inbounds nuw i8, ptr %0, i64 20
  %27 = load i32, ptr %26, align 4
  store i32 %27, ptr %14, align 4
  store i32 1, ptr %5, align 16
  %28 = getelementptr inbounds nuw i8, ptr %5, i64 8
  store ptr %6, ptr %28, align 8
  %29 = getelementptr inbounds nuw i8, ptr %5, i64 16
  store i32 1, ptr %29, align 16
  %30 = getelementptr inbounds nuw i8, ptr %5, i64 24
  store ptr %7, ptr %30, align 8
  %31 = getelementptr inbounds nuw i8, ptr %5, i64 32
  store i32 1, ptr %31, align 16
  %32 = getelementptr inbounds nuw i8, ptr %5, i64 40
  store ptr %8, ptr %32, align 8
  %33 = getelementptr inbounds nuw i8, ptr %5, i64 48
  store i32 1, ptr %33, align 16
  %34 = getelementptr inbounds nuw i8, ptr %5, i64 56
  store ptr %9, ptr %34, align 8
  %35 = getelementptr inbounds nuw i8, ptr %5, i64 64
  store i32 1, ptr %35, align 16
  %36 = getelementptr inbounds nuw i8, ptr %5, i64 72
  store ptr %10, ptr %36, align 8
  %37 = getelementptr inbounds nuw i8, ptr %5, i64 80
  store i32 1, ptr %37, align 16
  %38 = getelementptr inbounds nuw i8, ptr %5, i64 88
  store ptr %11, ptr %38, align 8
  %39 = getelementptr inbounds nuw i8, ptr %5, i64 96
  store i32 1, ptr %39, align 16
  %40 = getelementptr inbounds nuw i8, ptr %5, i64 104
  store ptr %12, ptr %40, align 8
  %41 = getelementptr inbounds nuw i8, ptr %5, i64 112
  store i32 1, ptr %41, align 16
  %42 = getelementptr inbounds nuw i8, ptr %5, i64 120
  store ptr %13, ptr %42, align 8
  %43 = getelementptr inbounds nuw i8, ptr %5, i64 128
  store i32 1, ptr %43, align 16
  %44 = getelementptr inbounds nuw i8, ptr %5, i64 136
  store ptr %14, ptr %44, align 8
  %45 = getelementptr inbounds nuw i8, ptr %5, i64 144
  store i32 0, ptr %45, align 16
  %46 = getelementptr inbounds nuw i8, ptr %5, i64 152
  store ptr null, ptr %46, align 8
  %47 = call ptr @btsdp_get_service_info(ptr noundef nonnull %5)
  %.not = icmp eq ptr %47, null
  br i1 %.not, label %.thread, label %48

48:                                               ; preds = %24
  %49 = load i32, ptr %47, align 8
  %50 = icmp eq i32 %49, %15
  br i1 %50, label %51, label %.thread

51:                                               ; preds = %48
  %52 = getelementptr inbounds nuw i8, ptr %47, i64 4
  %53 = load i32, ptr %52, align 4
  %54 = icmp eq i32 %53, %17
  br i1 %54, label %55, label %.thread

55:                                               ; preds = %51
  %56 = getelementptr inbounds nuw i8, ptr %47, i64 8
  %57 = load i32, ptr %56, align 8
  %58 = icmp eq i32 %57, 1
  br i1 %58, label %59, label %.thread

59:                                               ; preds = %55
  %60 = getelementptr inbounds nuw i8, ptr %47, i64 12
  %61 = load i32, ptr %60, align 4
  %62 = icmp eq i32 %61, 1
  %63 = getelementptr inbounds nuw i8, ptr %47, i64 16
  %64 = load i32, ptr %63, align 8
  br i1 %62, label %65, label %71

65:                                               ; preds = %59
  %66 = icmp eq i32 %64, %.sink
  br i1 %66, label %67, label %.thread

67:                                               ; preds = %65
  %68 = getelementptr inbounds nuw i8, ptr %47, i64 20
  %69 = load i32, ptr %68, align 4
  %70 = icmp eq i32 %69, %storemerge
  br i1 %70, label %77, label %.thread

71:                                               ; preds = %59
  %72 = icmp eq i32 %64, 0
  br i1 %72, label %73, label %.thread

73:                                               ; preds = %71
  %74 = getelementptr inbounds nuw i8, ptr %47, i64 20
  %75 = load i32, ptr %74, align 4
  %76 = icmp eq i32 %75, 0
  br i1 %76, label %77, label %.thread

77:                                               ; preds = %73, %67
  %78 = getelementptr inbounds nuw i8, ptr %47, i64 24
  %79 = load i32, ptr %78, align 8
  %80 = icmp eq i32 %79, 256
  br i1 %80, label %81, label %.thread

81:                                               ; preds = %77
  %82 = getelementptr inbounds nuw i8, ptr %47, i64 28
  %83 = load i32, ptr %82, align 4
  %84 = icmp eq i32 %83, %25
  br i1 %84, label %85, label %.thread

85:                                               ; preds = %81
  %86 = getelementptr inbounds nuw i8, ptr %47, i64 32
  %87 = load i16, ptr %86, align 8
  br label %.thread

.thread:                                          ; preds = %65, %67, %24, %48, %51, %55, %71, %73, %77, %81, %85
  %.0 = phi i16 [ %87, %85 ], [ 0, %81 ], [ 0, %77 ], [ 0, %73 ], [ 0, %71 ], [ 0, %55 ], [ 0, %51 ], [ 0, %48 ], [ 0, %24 ], [ 0, %67 ], [ 0, %65 ]
  call void @llvm.lifetime.end.p0(i64 4, ptr nonnull %14) #9
  call void @llvm.lifetime.end.p0(i64 4, ptr nonnull %13) #9
  call void @llvm.lifetime.end.p0(i64 4, ptr nonnull %12) #9
  call void @llvm.lifetime.end.p0(i64 4, ptr nonnull %11) #9
  call void @llvm.lifetime.end.p0(i64 4, ptr nonnull %10) #9
  call void @llvm.lifetime.end.p0(i64 4, ptr nonnull %9) #9
  call void @llvm.lifetime.end.p0(i64 4, ptr nonnull %8) #9
  call void @llvm.lifetime.end.p0(i64 4, ptr nonnull %7) #9
  call void @llvm.lifetime.end.p0(i64 4, ptr nonnull %6) #9
  call void @llvm.lifetime.end.p0(i64 160, ptr nonnull %5) #9
  ret i16 %.0
}